; ModuleID = '42/186.c'
source_filename = "42/186.c"
target datalayout = "e-m:e-p270:32:32-p271:32:32-p272:64:64-i64:64-f80:128-n8:16:32:64-S128"
target triple = "x86_64-pc-linux-gnu"

@.str = private unnamed_addr constant [3 x i8] c"%d\00", align 1
@.str.1 = private unnamed_addr constant [4 x i8] c"%d \00", align 1

; Function Attrs: noinline nounwind uwtable
define dso_local void @main() #0 {
  %1 = alloca i32, align 4
  %2 = alloca i32, align 4
  %3 = alloca i32, align 4
  %4 = alloca i32, align 4
  %5 = alloca [100000 x i32], align 16
  %6 = alloca [100000 x i32], align 16
  %7 = call i32 (i8*, ...) @__isoc99_scanf(i8* getelementptr inbounds ([3 x i8], [3 x i8]* @.str, i64 0, i64 0), i32* %2)
  store i32 0, i32* %1, align 4
  br label %8

8:                                                ; preds = %17, %0
  %9 = load i32, i32* %1, align 4
  %10 = load i32, i32* %2, align 4
  %11 = icmp slt i32 %9, %10
  br i1 %11, label %12, label %20

12:                                               ; preds = %8
  %13 = load i32, i32* %1, align 4
  %14 = sext i32 %13 to i64
  %15 = getelementptr inbounds [100000 x i32], [100000 x i32]* %6, i64 0, i64 %14
  %16 = call i32 (i8*, ...) @__isoc99_scanf(i8* getelementptr inbounds ([4 x i8], [4 x i8]* @.str.1, i64 0, i64 0), i32* %15)
  br label %17

17:                                               ; preds = %12
  %18 = load i32, i32* %1, align 4
  %19 = add nsw i32 %18, 1
  store i32 %19, i32* %1, align 4
  br label %8

20:                                               ; preds = %8
  %21 = call i32 (i8*, ...) @__isoc99_scanf(i8* getelementptr inbounds ([3 x i8], [3 x i8]* @.str, i64 0, i64 0), i32* %4)
  store i32 0, i32* %1, align 4
  br label %22

22:                                               ; preds = %58, %20
  %23 = load i32, i32* %1, align 4
  %24 = load i32, i32* %2, align 4
  %25 = icmp slt i32 %23, %24
  br i1 %25, label %26, label %59

26:                                               ; preds = %22
  %27 = load i32, i32* %1, align 4
  %28 = sext i32 %27 to i64
  %29 = getelementptr inbounds [100000 x i32], [100000 x i32]* %6, i64 0, i64 %28
  %30 = load i32, i32* %29, align 4
  %31 = load i32, i32* %4, align 4
  %32 = icmp eq i32 %30, %31
  br i1 %32, label %33, label %55

33:                                               ; preds = %26
  %34 = load i32, i32* %1, align 4
  store i32 %34, i32* %3, align 4
  br label %35

35:                                               ; preds = %49, %33
  %36 = load i32, i32* %3, align 4
  %37 = load i32, i32* %2, align 4
  %38 = sub nsw i32 %37, 1
  %39 = icmp slt i32 %36, %38
  br i1 %39, label %40, label %52

40:                                               ; preds = %35
  %41 = load i32, i32* %3, align 4
  %42 = add nsw i32 %41, 1
  %43 = sext i32 %42 to i64
  %44 = getelementptr inbounds [100000 x i32], [100000 x i32]* %6, i64 0, i64 %43
  %45 = load i32, i32* %44, align 4
  %46 = load i32, i32* %3, align 4
  %47 = sext i32 %46 to i64
  %48 = getelementptr inbounds [100000 x i32], [100000 x i32]* %6, i64 0, i64 %47
  store i32 %45, i32* %48, align 4
  br label %49

49:                                               ; preds = %40
  %50 = load i32, i32* %3, align 4
  %51 = add nsw i32 %50, 1
  store i32 %51, i32* %3, align 4
  br label %35

52:                                               ; preds = %35
  %53 = load i32, i32* %2, align 4
  %54 = add nsw i32 %53, -1
  store i32 %54, i32* %2, align 4
  br label %58

55:                                               ; preds = %26
  %56 = load i32, i32* %1, align 4
  %57 = add nsw i32 %56, 1
  store i32 %57, i32* %1, align 4
  br label %58

58:                                               ; preds = %55, %52
  br label %22

59:                                               ; preds = %22
  store i32 0, i32* %1, align 4
  br label %60

60:                                               ; preds = %71, %59
  %61 = load i32, i32* %1, align 4
  %62 = load i32, i32* %2, align 4
  %63 = sub nsw i32 %62, 1
  %64 = icmp slt i32 %61, %63
  br i1 %64, label %65, label %74

65:                                               ; preds = %60
  %66 = load i32, i32* %1, align 4
  %67 = sext i32 %66 to i64
  %68 = getelementptr inbounds [100000 x i32], [100000 x i32]* %6, i64 0, i64 %67
  %69 = load i32, i32* %68, align 4
  %70 = call i32 (i8*, ...) @printf(i8* getelementptr inbounds ([4 x i8], [4 x i8]* @.str.1, i64 0, i64 0), i32 %69)
  br label %71

71:                                               ; preds = %65
  %72 = load i32, i32* %1, align 4
  %73 = add nsw i32 %72, 1
  store i32 %73, i32* %1, align 4
  br label %60

74:                                               ; preds = %60
  %75 = load i32, i32* %2, align 4
  %76 = sub nsw i32 %75, 1
  %77 = sext i32 %76 to i64
  %78 = getelementptr inbounds [100000 x i32], [100000 x i32]* %6, i64 0, i64 %77
  %79 = load i32, i32* %78, align 4
  %80 = call i32 (i8*, ...) @printf(i8* getelementptr inbounds ([3 x i8], [3 x i8]* @.str, i64 0, i64 0), i32 %79)
  ret void
}

declare dso_local i32 @__isoc99_scanf(i8*, ...) #1

declare dso_local i32 @printf(i8*, ...) #1


!llvm.module.flags = !{!0}
!llvm.ident = !{!1}

!0 = !{i32 1, !"wchar_size", i32 4}
!1 = !{!"clang version 10.0.0-4ubuntu1 "}
